; ModuleID = '4/273.c'
source_filename = "4/273.c"
target datalayout = "e-m:e-p270:32:32-p271:32:32-p272:64:64-i64:64-f80:128-n8:16:32:64-S128"
target triple = "x86_64-pc-linux-gnu"

@.str = private unnamed_addr constant [5 x i8] c"%d%d\00", align 1
@.str.1 = private unnamed_addr constant [3 x i8] c"%d\00", align 1
@.str.2 = private unnamed_addr constant [4 x i8] c"%d\0A\00", align 1

; Function Attrs: noinline nounwind uwtable
define dso_local i32 @main() #0 {
  %1 = alloca i32, align 4
  %2 = alloca [100 x [100 x i32]], align 16
  %3 = alloca i32, align 4
  %4 = alloca i32, align 4
  %5 = alloca i32, align 4
  %6 = alloca i32, align 4
  %7 = alloca i32, align 4
  %8 = alloca i32, align 4
  store i32 0, i32* %1, align 4
  %9 = call i32 (i8*, ...) @__isoc99_scanf(i8* getelementptr inbounds ([5 x i8], [5 x i8]* @.str, i64 0, i64 0), i32* %8, i32* %7)
  store i32 0, i32* %3, align 4
  br label %10

10:                                               ; preds = %31, %0
  %11 = load i32, i32* %3, align 4
  %12 = load i32, i32* %8, align 4
  %13 = icmp slt i32 %11, %12
  br i1 %13, label %14, label %34

14:                                               ; preds = %10
  store i32 0, i32* %4, align 4
  br label %15

15:                                               ; preds = %27, %14
  %16 = load i32, i32* %4, align 4
  %17 = load i32, i32* %7, align 4
  %18 = icmp slt i32 %16, %17
  br i1 %18, label %19, label %30

19:                                               ; preds = %15
  %20 = load i32, i32* %4, align 4
  %21 = sext i32 %20 to i64
  %22 = getelementptr inbounds [100 x [100 x i32]], [100 x [100 x i32]]* %2, i64 0, i64 %21
  %23 = load i32, i32* %3, align 4
  %24 = sext i32 %23 to i64
  %25 = getelementptr inbounds [100 x i32], [100 x i32]* %22, i64 0, i64 %24
  %26 = call i32 (i8*, ...) @__isoc99_scanf(i8* getelementptr inbounds ([3 x i8], [3 x i8]* @.str.1, i64 0, i64 0), i32* %25)
  br label %27

27:                                               ; preds = %19
  %28 = load i32, i32* %4, align 4
  %29 = add nsw i32 %28, 1
  store i32 %29, i32* %4, align 4
  br label %15

30:                                               ; preds = %15
  br label %31

31:                                               ; preds = %30
  %32 = load i32, i32* %3, align 4
  %33 = add nsw i32 %32, 1
  store i32 %33, i32* %3, align 4
  br label %10

34:                                               ; preds = %10
  store i32 0, i32* %5, align 4
  br label %35

35:                                               ; preds = %78, %34
  %36 = load i32, i32* %5, align 4
  %37 = load i32, i32* %7, align 4
  %38 = load i32, i32* %8, align 4
  %39 = add nsw i32 %37, %38
  %40 = sub nsw i32 %39, 1
  %41 = icmp slt i32 %36, %40
  br i1 %41, label %42, label %81

42:                                               ; preds = %35
  %43 = load i32, i32* %5, align 4
  store i32 %43, i32* %6, align 4
  br label %44

44:                                               ; preds = %74, %42
  %45 = load i32, i32* %6, align 4
  %46 = icmp sge i32 %45, 0
  br i1 %46, label %47, label %77

47:                                               ; preds = %44
  %48 = load i32, i32* %6, align 4
  %49 = load i32, i32* %7, align 4
  %50 = sub nsw i32 %49, 1
  %51 = icmp sgt i32 %48, %50
  br i1 %51, label %52, label %55

52:                                               ; preds = %47
  %53 = load i32, i32* %7, align 4
  %54 = sub nsw i32 %53, 1
  store i32 %54, i32* %6, align 4
  br label %55

55:                                               ; preds = %52, %47
  %56 = load i32, i32* %6, align 4
  store i32 %56, i32* %4, align 4
  %57 = load i32, i32* %5, align 4
  %58 = load i32, i32* %4, align 4
  %59 = sub nsw i32 %57, %58
  store i32 %59, i32* %3, align 4
  %60 = load i32, i32* %3, align 4
  %61 = load i32, i32* %8, align 4
  %62 = sub nsw i32 %61, 1
  %63 = icmp sgt i32 %60, %62
  br i1 %63, label %64, label %65

64:                                               ; preds = %55
  br label %77

65:                                               ; preds = %55
  %66 = load i32, i32* %4, align 4
  %67 = sext i32 %66 to i64
  %68 = getelementptr inbounds [100 x [100 x i32]], [100 x [100 x i32]]* %2, i64 0, i64 %67
  %69 = load i32, i32* %3, align 4
  %70 = sext i32 %69 to i64
  %71 = getelementptr inbounds [100 x i32], [100 x i32]* %68, i64 0, i64 %70
  %72 = load i32, i32* %71, align 4
  %73 = call i32 (i8*, ...) @printf(i8* getelementptr inbounds ([4 x i8], [4 x i8]* @.str.2, i64 0, i64 0), i32 %72)
  br label %74

74:                                               ; preds = %65
  %75 = load i32, i32* %6, align 4
  %76 = add nsw i32 %75, -1
  store i32 %76, i32* %6, align 4
  br label %44

77:                                               ; preds = %64, %44
  br label %78

78:                                               ; preds = %77
  %79 = load i32, i32* %5, align 4
  %80 = add nsw i32 %79, 1
  store i32 %80, i32* %5, align 4
  br label %35

81:                                               ; preds = %35
  ret i32 0
}

declare dso_local i32 @__isoc99_scanf(i8*, ...) #1

declare dso_local i32 @printf(i8*, ...) #1


!llvm.module.flags = !{!0}
!llvm.ident = !{!1}

!0 = !{i32 1, !"wchar_size", i32 4}
!1 = !{!"clang version 10.0.0-4ubuntu1 "}
